; Function Attrs: nounwind sspstrong uwtable
define dso_local void @job_enter(ptr noundef %0) local_unnamed_addr #0 {
  %2 = load atomic i64, ptr @qemu_mutex_lock_func monotonic, align 8
  %3 = inttoptr i64 %2 to ptr
  tail call void %3(ptr noundef nonnull @job_mutex, ptr noundef nonnull @.str.29, i32 noundef 56) #15
  %4 = getelementptr i8, ptr %0, i64 16
  %.val.i1 = load ptr, ptr %4, align 8
  %.not10.i = icmp eq ptr %.val.i1, null
  br i1 %.not10.i, label %glib_autoptr_cleanup_QemuLockable.exit, label %5

5:                                                ; preds = %1
  %6 = getelementptr inbounds nuw i8, ptr %0, i64 185
  %7 = load i8, ptr %6, align 1, !range !4, !noundef !5
  %8 = trunc nuw i8 %7 to i1
  br i1 %8, label %glib_autoptr_cleanup_QemuLockable.exit, label %9

9:                                                ; preds = %5
  %10 = getelementptr inbounds nuw i8, ptr %0, i64 180
  %11 = load i8, ptr %10, align 4, !range !4, !noundef !5
  %12 = trunc nuw i8 %11 to i1
  br i1 %12, label %glib_autoptr_cleanup_QemuLockable.exit, label %13

13:                                               ; preds = %9
  %14 = getelementptr inbounds nuw i8, ptr %0, i64 128
  tail call void @timer_del(ptr noundef nonnull %14) #15
  store i8 1, ptr %10, align 4
  tail call void @qemu_mutex_unlock_impl(ptr noundef nonnull @job_mutex, ptr noundef nonnull @.str, i32 noundef 106) #15
  %15 = load ptr, ptr %4, align 8
  tail call void @aio_co_wake(ptr noundef %15) #15
  %16 = load atomic i64, ptr @qemu_mutex_lock_func monotonic, align 8
  %17 = inttoptr i64 %16 to ptr
  tail call void %17(ptr noundef nonnull @job_mutex, ptr noundef nonnull @.str, i32 noundef 101) #15
  br label %glib_autoptr_cleanup_QemuLockable.exit

glib_autoptr_cleanup_QemuLockable.exit:           ; preds = %1, %5, %9, %13
  tail call void @qemu_mutex_unlock_impl(ptr noundef nonnull @job_mutex, ptr noundef nonnull @.str.29, i32 noundef 56) #15
  ret void
}